; Function Attrs: mustprogress nounwind uwtable
define noundef nonnull ptr @_Z30frontend_verilog_yy_scan_bytesPKci(ptr noundef readonly captures(none) %0, i32 noundef %1) local_unnamed_addr #3 {
  %3 = add nsw i32 %1, 2
  %4 = sext i32 %3 to i64
  %5 = tail call noalias noundef ptr @malloc(i64 noundef %4) #39
  %.not = icmp eq ptr %5, null
  br i1 %.not, label %11, label %.preheader

.preheader:                                       ; preds = %2
  %6 = icmp sgt i32 %1, 0
  br i1 %6, label %._crit_edge.thread, label %._crit_edge

._crit_edge.thread:                               ; preds = %.preheader
  %7 = zext nneg i32 %1 to i64
  tail call void @llvm.memcpy.p0.p0.i64(ptr nonnull align 1 %5, ptr align 1 %0, i64 %7, i1 false), !tbaa !19
  %8 = zext nneg i32 %1 to i64
  %9 = getelementptr i8, ptr %5, i64 %8
  %10 = getelementptr i8, ptr %9, i64 1
  store i8 0, ptr %10, align 1, !tbaa !19
  store i8 0, ptr %9, align 1, !tbaa !19
  br label %16

11:                                               ; preds = %2
  tail call fastcc void @_ZL14yy_fatal_errorPKc(ptr noundef nonnull @.str.17) #40
  unreachable

._crit_edge:                                      ; preds = %.preheader
  %12 = sext i32 %1 to i64
  %13 = getelementptr i8, ptr %5, i64 %12
  %14 = getelementptr i8, ptr %13, i64 1
  store i8 0, ptr %14, align 1, !tbaa !19
  store i8 0, ptr %13, align 1, !tbaa !19
  %15 = icmp ugt i32 %1, -3
  br i1 %15, label %19, label %16

16:                                               ; preds = %._crit_edge.thread, %._crit_edge
  %17 = tail call noalias noundef dereferenceable_or_null(64) ptr @malloc(i64 noundef 64) #39
  %.not24.i = icmp eq ptr %17, null
  br i1 %.not24.i, label %18, label %20

18:                                               ; preds = %16
  tail call fastcc void @_ZL14yy_fatal_errorPKc(ptr noundef nonnull @.str.16) #40
  unreachable

19:                                               ; preds = %._crit_edge
  tail call fastcc void @_ZL14yy_fatal_errorPKc(ptr noundef nonnull @.str.18) #40
  unreachable

20:                                               ; preds = %16
  %21 = getelementptr inbounds nuw i8, ptr %17, i64 24
  store i32 %1, ptr %21, align 8, !tbaa !38
  %22 = getelementptr inbounds nuw i8, ptr %17, i64 8
  store ptr %5, ptr %22, align 8, !tbaa !40
  %23 = getelementptr inbounds nuw i8, ptr %17, i64 16
  store ptr %5, ptr %23, align 8, !tbaa !43
  %24 = getelementptr inbounds nuw i8, ptr %17, i64 32
  store i32 0, ptr %24, align 8, !tbaa !41
  store ptr null, ptr %17, align 8, !tbaa !45
  %25 = getelementptr inbounds nuw i8, ptr %17, i64 28
  store i32 %1, ptr %25, align 4, !tbaa !42
  %26 = getelementptr inbounds nuw i8, ptr %17, i64 36
  store i32 0, ptr %26, align 4, !tbaa !289
  %27 = getelementptr inbounds nuw i8, ptr %17, i64 40
  store i32 1, ptr %27, align 8, !tbaa !286
  %28 = getelementptr inbounds nuw i8, ptr %17, i64 52
  store i32 0, ptr %28, align 4, !tbaa !282
  %29 = getelementptr inbounds nuw i8, ptr %17, i64 56
  store i32 0, ptr %29, align 8, !tbaa !260
  tail call void @_Z36frontend_verilog_yy_switch_to_bufferP15yy_buffer_state(ptr noundef nonnull %17)
  store i32 1, ptr %24, align 8, !tbaa !41
  ret ptr %17
}